(dp0
S'Fa06-rice'
p1
S'72157644113699064'
p2
sS'Fa00-sweiceskating'
p3
S'72157644175639611'
p4
sS'Fa06-pshmike'
p5
S'72157644110841763'
p6
sS'Fa12-Picnic'
p7
S'72157644204263536'
p8
sS'Sp06-grad'
p9
S'72157644100510221'
p10
sS'Sp04-movie'
p11
S'72157644054807154'
p12
sS'Sp08-TeamEECSOlympiads'
p13
S'72157644072513901'
p14
sS'Sp07-alumnibroomball'
p15
S'72157644275736385'
p16
sS'Sp00-elections'
p17
S'72157644101479666'
p18
sS'Sp12-1334280600GeneralMeeting3'
p19
S'72157644069333045'
p20
sS'Fa13-BallroomDancingwithSWE'
p21
S'72157644042305976'
p22
sS'Sp14-0414-GeneralMeeting3'
p23
S'72157644375208772'
p24
sS'Sp03-donutrun'
p25
S'72157644184284106'
p26
sS'Fa03-random'
p27
S'72157644227254903'
p28
sS'Fa04-brewed'
p29
S'72157644183132945'
p30
sS'Fa02-facmixer'
p31
S'72157644003237395'
p32
sS'Fa02-castro'
p33
S'72157644003823264'
p34
sS'Fa09-DepartmentBakeoff'
p35
S'72157644330831814'
p36
sS'Fa13-RootBeerFloatNight'
p37
S'72157644098261753'
p38
sS'Fa11-Bowling'
p39
S'72157644102549516'
p40
sS'Sp13-Picnic'
p41
S'72157644045602851'
p42
sS'Fa05-banquet'
p43
S'72157643949535223'
p44
sS'Fa04-dancing'
p45
S'72157644122602902'
p46
sS'Fa04-initiation'
p47
S'72157644124756226'
p48
sS'Sp04-karaoke'
p49
S'72157644055663764'
p50
sS'Fa06-infosys'
p51
S'72157644112377073'
p52
sS'Fa03-minigolf'
p53
S'72157644170084972'
p54
sS'Sp09-PokerNight'
p55
S'72157644291013246'
p56
sS'Sp13-DepartmentBakeOff'
p57
S'72157644049631252'
p58
sS'Fa03-deptbaking'
p59
S'72157644129937132'
p60
sS'Sp09-PhotoScavengerHuntTeamIngridsDeliciousBunny'
p61
S'72157644384862153'
p62
sS'Fa11-CasinoNight'
p63
S'72157644105718501'
p64
sS'Sp04-miscellaneous'
p65
S'72157644058347433'
p66
sS'Fa00-trilogydaveandbusters'
p67
S'72157644175591272'
p68
sS'Sp08-pi'
p69
S'72157644126291633'
p70
sS'Sp06-holdem'
p71
S'72157644094015236'
p72
sS'Fa10-membersicecream'
p73
S'72157644318417913'
p74
sS'Sp08-banquet'
p75
S'72157644072696891'
p76
sS'Fa05-peer'
p77
S'72157643895090615'
p78
sS'Sp04-peer1'
p79
S'72157644053738244'
p80
sS'Sp06-cm'
p81
S'72157644098664551'
p82
sS'Fa01-banquet'
p83
S'72157644066513191'
p84
sS'Sp14-0315-EngineeringForKids'
p85
S'72157643929419843'
p86
sS'Fa02-minigolf'
p87
S'72157644049765314'
p88
sS'Sp04-plearn'
p89
S'72157644054002863'
p90
sS'Sp10-Fentons'
p91
S'72157644177234656'
p92
sS'Fa02-candmeeting'
p93
S'72157644004354494'
p94
sS'Fa07-ctf'
p95
S'72157644254270114'
p96
sS'Sp04-bridgedinner'
p97
S'72157644053544354'
p98
sS'Sp08-earthday'
p99
S'72157644072927726'
p100
sS'Sp99-Banquet'
p101
S'72157644206092331'
p102
sS'Fa12-1010-BallroomDancing'
p103
S'72157644249399682'
p104
sS'Fa03-westerndigital'
p105
S'72157644169173771'
p106
sS'Fa08-Fentons'
p107
S'72157644343168105'
p108
sS'Fa04-aad'
p109
S'72157644178350153'
p110
sS'Fa03-ibmtalk'
p111
S'72157644170451892'
p112
sS'Sp06-peer'
p113
S'72157644151426483'
p114
sS'Fa01-misc'
p115
S'72157644061401392'
p116
sS'Sp03-gamenight'
p117
S'72157644224509142'
p118
sS'Fa03-miscellaneous'
p119
S'72157644174858992'
p120
sS'Sp01-eggster'
p121
S'72157644221481425'
p122
sS'Sp09-IceCreamSocial'
p123
S'72157644365722164'
p124
sS'Fa06-uhuru'
p125
S'72157644057660156'
p126
sS'Fa01-facultymixer'
p127
S'72157644120608005'
p128
sS'Sp02-minigolf'
p129
S'72157644001066345'
p130
sS'Fa04-alumbroom'
p131
S'72157644181491694'
p132
sS'Sp13-LaserTagwithUPE'
p133
S'72157644045145512'
p134
sS'Fa03-upebroomball'
p135
S'72157644131465971'
p136
sS'Sp04-gm2'
p137
S'72157644053103054'
p138
sS'Old-CandidateMugs'
p139
S'72157644165654696'
p140
sS'Fa07-bakeoff'
p141
S'72157644202941366'
p142
sS'Sp04-gradschoolcs'
p143
S'72157644053694904'
p144
sS'Fa02-pumpkins'
p145
S'72157644050636844'
p146
sS'Fa10-bowling'
p147
S'72157644263279932'
p148
sS'Sp04-gn2'
p149
S'72157644054311994'
p150
sS'Sp04-gn1'
p151
S'72157644056087643'
p152
sS'Fa04-minigolf'
p153
S'72157644180062795'
p154
sS'Sp08-craftsnight'
p155
S'72157644067356982'
p156
sS'Sp00-gm2'
p157
S'72157644101892611'
p158
sS'Sp00-gm3'
p159
S'72157644156530424'
p160
sS'Fa06-AMDinfosession'
p161
S'72157644057232626'
p162
sS'Fa00-ASMEbroomball'
p163
S'72157644137563246'
p164
sS'Sp13-Initiation'
p165
S'72157644053887061'
p166
sS'Fa08-GM1'
p167
S'72157644339867364'
p168
sS'Fa08-GM2'
p169
S'72157644327468312'
p170
sS'Fa08-GM3'
p171
S'72157644382706863'
p172
sS'Sp08-renewthezoo'
p173
S'72157644073494776'
p174
sS'Sp07-aad'
p175
S'72157644265702154'
p176
sS'Fa13-LaserTagUPE'
p177
S'72157644094897014'
p178
sS'Fa03-blueandgold'
p179
S'72157644227176753'
p180
sS'Sp01-random001'
p181
S'72157644168291536'
p182
sS'Fa02-icecreamsocial'
p183
S'72157644050268083'
p184
sS'Sp05-peer2'
p185
S'72157644222256031'
p186
sS'Fa00-alumniappreciation'
p187
S'72157644177078051'
p188
sS'Sp02-gm2'
p189
S'72157643953447443'
p190
sS'Sp02-volleyball'
p191
S'72157644002387195'
p192
sS'Fa13-CasinoNight'
p193
S'72157644095352503'
p194
sS'Sp04-alumni'
p195
S'72157644052839974'
p196
sS'Fa07-potluck'
p197
S'72157644202025886'
p198
sS'Sp05-donutrun'
p199
S'72157644275157973'
p200
sS'Sp02-trailhacking'
p201
S'72157643952012205'
p202
sS'Sp09-BoardGameNight'
p203
S'72157644350100682'
p204
sS'Fa11-BallroomDancing'
p205
S'72157644105627426'
p206
sS'Sp07-piday'
p207
S'72157644252770061'
p208
sS'Sp09-GM2'
p209
S'72157644347111944'
p210
sS'Sp09-GM1'
p211
S'72157644345584765'
p212
sS'Sp06-ms'
p213
S'72157644097348396'
p214
sS'Fa03-gradschoolinfo'
p215
S'72157644184441314'
p216
sS'Sp04-shunt3'
p217
S'72157644057000984'
p218
sS'Sp02-minnesota'
p219
S'72157643952299135'
p220
sS'Fa12-0926-CandidateMeeting'
p221
S'72157644259706584'
p222
sS'Sp07-careerfair'
p223
S'72157644251786711'
p224
sS'Sp08-rootbeer'
p225
S'72157644067634641'
p226
sS'Sp05-movienight'
p227
S'72157644223097491'
p228
sS'Sp13-IceSkating'
p229
S'72157644108071964'
p230
sS'Fa12-HalloweenSocial'
p231
S'72157644258707905'
p232
sS'Fa13-Picnic'
p233
S'72157644093496625'
p234
sS'Fa00-bbq'
p235
S'72157644190711075'
p236
sS'Fa02-initiation'
p237
S'72157644004498615'
p238
sS'Fa05-candidate'
p239
S'72157643951420735'
p240
sS'Fa06-mafia'
p241
S'72157644060090036'
p242
sS'Fa03-karaoke'
p243
S'72157644225337093'
p244
sS'Sp10-woz'
p245
S'72157644175247086'
p246
sS'Sp01-asmeptsembsbroomball'
p247
S'72157644192553695'
p248
sS'Sp04-shunt6'
p249
S'72157644053767244'
p250
sS'Fa10-HKNbakesgoods'
p251
S'72157644222439186'
p252
sS'Sp04-balltbp'
p253
S'72157644058100493'
p254
sS'Sp05-poetry'
p255
S'72157644277078743'
p256
sS'Fa01-gradjosieparty'
p257
S'72157644065891056'
p258
sS'Fa05-rock'
p259
S'72157643949748254'
p260
sS'Fa06-aad'
p261
S'72157644111848295'
p262
sS'Sp08-cm'
p263
S'72157644126773735'
p264
sS'Fa10-generalmeeting2'
p265
S'72157644318450033'
p266
sS'Fa04-studyskills'
p267
S'72157644107025401'
p268
sS'Fa05-pshTheNoNamers'
p269
S'72157643951388194'
p270
sS'Fa13-CandidateIceCream'
p271
S'72157644039429152'
p272
sS'Sp14-0421-DancingWithSWE'
p273
S'72157644032437717'
p274
sS'Sp04-initiation'
p275
S'72157644054584063'
p276
sS'Sp12-1329357600HKNCandidateMeeting'
p277
S'72157644092398834'
p278
sS'Sp08-paintball001'
p279
S'72157644094227501'
p280
sS'Sp12-KaraokewithAWE'
p281
S'72157644058241535'
p282
sS'Fa11-HKNGM3'
p283
S'72157644158205053'
p284
sS'Fa05-pizza2'
p285
S'72157643892605155'
p286
sS'Fa03-xilinxinfo'
p287
S'72157644185706385'
p288
sS'Fa02-karaoke'
p289
S'72157644049806874'
p290
sS'Fa04-vmware'
p291
S'72157644183246345'
p292
sS'Fa13-GM1'
p293
S'72157644094923575'
p294
sS'Fa13-GM2'
p295
S'72157644042126862'
p296
sS'Fa13-GM3'
p297
S'72157644043042676'
p298
sS'Fa09-BigFunEvent2TheAmazingRace'
p299
S'72157644276700466'
p300
sS'Fa04-pregame2'
p301
S'72157644183537144'
p302
sS'Sp14-0401-TheaterGames'
p303
S'72157643930807603'
p304
sS'Fa08-EE20ReviewSession'
p305
S'72157644324721012'
p306
sS'Fa04-pregame1'
p307
S'72157644122788222'
p308
sS'Fa04-girlscouts'
p309
S'72157644180775605'
p310
sS'Sp12-1331089200HKNGeneralMeeting1'
p311
S'72157644061075914'
p312
sS'Fa01-initiation'
p313
S'72157644120311785'
p314
sS'Fa00-qzar'
p315
S'72157644179301701'
p316
sS'Fa00-mamma'
p317
S'72157644192205514'
p318
sS'Sp00-potluck'
p319
S'72157644156643034'
p320
sS'Fa13-Initiation'
p321
S'72157644044276176'
p322
sS'Fa03-ucsdgradworkshop'
p323
S'72157644174948152'
p324
sS'Fa12-GM3'
p325
S'72157644262298535'
p326
sS'Sp01-swekaraoke001'
p327
S'72157644224306474'
p328
sS'Fa12-1227-RootBeerFloatNight'
p329
S'72157644247176572'
p330
sS'Sp04-amd'
p331
S'72157644053689174'
p332
sS'Sp11-potluck'
p333
S'72157644044729142'
p334
sS'Fa06-yogurt'
p335
S'72157644112628533'
p336
sS'Fa02-potluck'
p337
S'72157644050401243'
p338
sS'Sp02-banquet'
p339
S'72157644001710225'
p340
sS'Sp07-potluck'
p341
S'72157644267172614'
p342
sS'Fa06-faceofresearch'
p343
S'72157644056832142'
p344
sS'Fa13-FireTrailHike'
p345
S'72157644038775661'
p346
sS'Fa01-gamenight'
p347
S'72157644114880035'
p348
sS'Fa13-MidnightCTF'
p349
S'72157644043038586'
p350
sS'Sp13-DimSum'
p351
S'72157644105075275'
p352
sS'Fa00-eday'
p353
S'72157644232836483'
p354
sS'Fa00-generalpics'
p355
S'72157644191717374'
p356
sS'Sp03-bowling'
p357
S'72157644238602374'
p358
sS'Fa13-Paintball'
p359
S'72157644095800985'
p360
sS'Fa13-DimSum'
p361
S'72157644040856912'
p362
sS'Sp13-MicrosoftAppMadness'
p363
S'72157644107626744'
p364
sS'Sp06-potluck'
p365
S'72157644099597782'
p366
sS'Fa09-BenandJerrysIceCreamSocial'
p367
S'72157644276577206'
p368
sS'Sp09-MembersRockclimbing'
p369
S'72157644308115356'
p370
sS'Fa06-cm'
p371
S'72157644058345172'
p372
sS'Fa01-elections'
p373
S'72157644115308504'
p374
sS'Fa09-PhotoScavengerHuntTeamREF'
p375
S'72157644316930812'
p376
sS'Fa13-BakeOff'
p377
S'72157644095018834'
p378
sS'Sp05-randomcandpics'
p379
S'72157644274526073'
p380
sS'Fa03-microsoftalumnichat'
p381
S'72157644185287453'
p382
sS'Fa05-vmware'
p383
S'72157643950589353'
p384
sS'Fa03-banquet'
p385
S'72157644172398011'
p386
sS'Fa06-ctf'
p387
S'72157644112928583'
p388
sS'Fa06-zoo'
p389
S'72157644059018011'
p390
sS'Fa10-candidateicecream'
p391
S'72157644264079192'
p392
sS'Sp10-picnic'
p393
S'72157644218664781'
p394
sS'Sp06-vgnight'
p395
S'72157644155118513'
p396
sS'Sp02-potluck'
p397
S'72157644001945914'
p398
sS'Fa04-candidatepictures'
p399
S'72157644160909905'
p400
sS'Fa03-facultymixer'
p401
S'72157644224541013'
p402
sS'Sp07-sportsnight'
p403
S'72157644262262982'
p404
sS'Fa05-gametbp'
p405
S'72157643892527275'
p406
sS'Old-PictureDatabase'
p407
S'72157644206538741'
p408
sS'Sp01-elections'
p409
S'72157644192992474'
p410
sS'Fa10-HKNgetstheirgameon'
p411
S'72157644321013773'
p412
sS'Sp08-memberspotluck'
p413
S'72157644068793992'
p414
sS'Sp08-icecream'
p415
S'72157644121895934'
p416
sS'Fa02-horses'
p417
S'72157644050486135'
p418
sS'Sp06-election'
p419
S'72157644098153776'
p420
sS'Sp13-FireTrail'
p421
S'72157644103157315'
p422
sS'Old-Scandals'
p423
S'72157644164505006'
p424
sS'Sp03-initiation'
p425
S'72157644226577081'
p426
sS'Sp08-bowling'
p427
S'72157644123825633'
p428
sS'Fa13-SpruceUpLakeMerritt'
p429
S'72157644094159564'
p430
sS'Sp03-contrib'
p431
S'72157644225393252'
p432
sS'Fa01-icecream2'
p433
S'72157644066849722'
p434
sS'Fa02-gm2'
p435
S'72157644003633084'
p436
sS'Fa02-gm3'
p437
S'72157644004913223'
p438
sS'Sp13-BowlingwithBlueprint'
p439
S'72157644047759621'
p440
sS'Fa02-gm1'
p441
S'72157644004782345'
p442
sS'Fa10-friendsoffivecreeks'
p443
S'72157644280091624'
p444
sS'Sp04-elections'
p445
S'72157644052063794'
p446
sS'Sp09-Retreat'
p447
S'72157644334324061'
p448
sS'Fa07-teamPBJ'
p449
S'72157644239949631'
p450
sS'Fa13-FriendsofFiveCreeks'
p451
S'72157644038456651'
p452
sS'Sp12-Banquet'
p453
S'72157644037255822'
p454
sS'Sp09-Memberspotluck'
p455
S'72157644309180766'
p456
sS'Sp14-0503-InitiationBanquet'
p457
S'72157644586922183'
p458
sS'Fa08-PhotoScavengerHunt'
p459
S'72157644339602284'
p460
sS'Fa02-ctf2'
p461
S'72157644003025733'
p462
sS'Fa06-thaitemple'
p463
S'72157644111815614'
p464
sS'Fa13-AlumniAppreciationDinner'
p465
S'72157644097960813'
p466
sS'Sp13-MidnightUltimate'
p467
S'72157644109846194'
p468
sS'Sp05-chocolate'
p469
S'72157644178601286'
p470
sS'Sp01-candidates'
p471
S'72157644181007921'
p472
sS'Fa12-HabitatForHumanity'
p473
S'72157644246567141'
p474
sS'Fa09-PhotoScavengerHuntTeamAdit'
p475
S'72157644331285915'
p476
sS'Sp01-gagancandidatemeeting'
p477
S'72157644193248004'
p478
sS'Fa08-lanparty'
p479
S'72157644258015385'
p480
sS'Fa01-gm2'
p481
S'72157644115634494'
p482
sS'Fa05-alumbb'
p483
S'72157643894993104'
p484
sS'Sp03-peeradvising'
p485
S'72157644279231633'
p486
sS'Fa06-factset'
p487
S'72157644055380741'
p488
sS'Sp02-unknown'
p489
S'72157644002035224'
p490
sS'Fa00-officerorientation'
p491
S'72157644176453202'
p492
sS'Sp08-broomball'
p493
S'72157644069779536'
p494
sS'Fa03-halloweenhouse'
p495
S'72157644174573442'
p496
sS'Fa06-bowling'
p497
S'72157644111148975'
p498
sS'Sp04-CTF'
p499
S'72157644057058485'
p500
sS'Sp08-bakeoff'
p501
S'72157644127493093'
p502
sS'Fa02-alumnidinner'
p503
S'72157644004645984'
p504
sS'Fa00-icecreamsocial'
p505
S'72157644191467755'
p506
sS'Fa04-football'
p507
S'72157644183702153'
p508
sS'Fa01-creekrestoration'
p509
S'72157644061361736'
p510
sS'Sp04-tmp'
p511
S'72157644057828125'
p512
sS'Sp05-icecreamsocial2'
p513
S'72157644179478036'
p514
sS'Sp06-calday'
p515
S'72157644099181111'
p516
sS'Fa07-uhurupies'
p517
S'72157644199184056'
p518
sS'Fa11-BanquetSlideshowPictures'
p519
S'72157644102652152'
p520
sS'Fa12-0928-CandidateIceCream'
p521
S'72157644206626526'
p522
sS'Fa04-shunt'
p523
S'72157644181480324'
p524
sS'Fa07-sports'
p525
S'72157644253902875'
p526
sS'Sp13-MidnightCapturetheFlag'
p527
S'72157644107714325'
p528
sS'Fa04-gre1'
p529
S'72157644122750776'
p530
sS'Sp03-eegradinfo'
p531
S'72157644240500854'
p532
sS'Sp13-CandidateIceCream'
p533
S'72157644047231502'
p534
sS'Sp03-minigolf'
p535
S'72157644239973524'
p536
sS'Fa05-bball'
p537
S'72157643894751003'
p538
sS'Fa11-KaraokeNight'
p539
S'72157644160262873'
p540
sS'Fa11-AlumniAppreciationDinner'
p541
S'72157644160298733'
p542
sS'Sp05-icecreamsocial'
p543
S'72157644236895484'
p544
sS'Sp04-bballupe'
p545
S'72157644051030814'
p546
sS'Fa13-Olympics'
p547
S'72157644097785314'
p548
sS'Fa04-donut'
p549
S'72157644123009356'
p550
sS'Fa05-upebb'
p551
S'72157643950057253'
p552
sS'Sp03-tbpbball'
p553
S'72157644240315184'
p554
sS'Sp06-gamesem'
p555
S'72157644155242203'
p556
sS'Fa06-dodgeball'
p557
S'72157644112065033'
p558
sS'Sp12-1334458800EngineeringSportsNight'
p559
S'72157644068982375'
p560
sS'Sp10-flagfootball'
p561
S'72157644230386094'
p562
sS'Sp03-banquet'
p563
S'72157644240032045'
p564
sS'Fa05-church'
p565
S'72157643892121434'
p566
sS'Fa06-benjerry'
p567
S'72157644110501934'
p568
sS'Sp10-E4K'
p569
S'72157644225656884'
p570
sS'Sp03-newtable'
p571
S'72157644239339345'
p572
sS'Fa01-bridgeschool'
p573
S'72157644061393566'
p574
sS'Fa10-bigc'
p575
S'72157644277858874'
p576
sS'Sp01-trailhacking001'
p577
S'72157644209069842'
p578
sS'Fa08-MembersPotluck'
p579
S'72157644288289566'
p580
sS'Fa11-FentonsIceCreamTrip'
p581
S'72157644122058962'
p582
sS'Sp08-ctf'
p583
S'72157644072216326'
p584
sS'Fa10-minigolf'
p585
S'72157644278504665'
p586
sS'Sp04-berkfood'
p587
S'72157644052654385'
p588
sS'Sp10-bakeoff'
p589
S'72157644231018045'
p590
sS'Fa05-amazon'
p591
S'72157643897578365'
p592
sS'Sp03-testtest'
p593
S'72157644226041762'
p594
sS'Fa07-memberspotluck'
p595
S'72157644250326284'
p596
sS'Sp12-MembersPotluck'
p597
S'72157644064618002'
p598
sS'Fa00-shankar'
p599
S'72157644177369941'
p600
sS'Fa04-peer2'
p601
S'72157644179453265'
p602
sS'Sp04-vmware'
p603
S'72157644057880285'
p604
sS'Fa04-peer1'
p605
S'72157644123347371'
p606
sS'Sp10-Initiation'
p607
S'72157644231536745'
p608
sS'Fa05-jelly'
p609
S'72157643948972403'
p610
sS'Sp03-gm1'
p611
S'72157644239487375'
p612
sS'Sp03-gm3'
p613
S'72157644239380374'
p614
sS'Sp04-soccer2'
p615
S'72157644051492363'
p616
sS'Sp13-BallroomDancingwithSWE'
p617
S'72157644106540434'
p618
sS'Sp01-u2concert001'
p619
S'72157644209870312'
p620
sS'Fa05-videogame'
p621
S'72157643950503834'
p622
sS'Fa02-bonfire'
p623
S'72157644050883634'
p624
sS'Fa07-cscavhuntbevo'
p625
S'72157644250627715'
p626
sS'Fa12-1103-MidnightCTF'
p627
S'72157644208322236'
p628
sS'Sp03-upebroomball'
p629
S'72157644238902084'
p630
sS'Sp00-initiation'
p631
S'72157644156284995'
p632
sS'Fa13-AlumniBroomball'
p633
S'72157644039925542'
p634
sS'Fa02-pregamebbq'
p635
S'72157644050083584'
p636
sS'Sp04-minigolf'
p637
S'72157644055449273'
p638
sS'Sp07-amd'
p639
S'72157644264957605'
p640
sS'Fa13-EngineeringSportsNight'
p641
S'72157644040838641'
p642
sS'Fa01-qzar'
p643
S'72157644066816981'
p644
sS'Sp02-aa'
p645
S'72157643953226843'
p646
sS'Fa04-gm3'
p647
S'72157644124284636'
p648
sS'Sp03-surveys'
p649
S'72157644225690021'
p650
sS'Fa02-upebroomball'
p651
S'72157644004234455'
p652
sS'Fa01-broomballtourny1'
p653
S'72157644121270803'
p654
sS'Fa00-movienight'
p655
S'72157644231748883'
p656
sS'Sp12-Fentons'
p657
S'72157644119369615'
p658
sS'Fa05-microsoft'
p659
S'72157643895355055'
p660
sS'Sp09-BigChike'
p661
S'72157644344997294'
p662
sS'Sp06-alumbb'
p663
S'72157644151038573'
p664
sS'Sp05-upebroom'
p665
S'72157644235620844'
p666
sS'Fa01-gm1'
p667
S'72157644066106102'
p668
sS'Sp13-Banquet'
p669
S'72157644052908541'
p670
sS'Fa01-donutrun'
p671
S'72157644065705481'
p672
sS'Fa04-gm2'
p673
S'72157644106692666'
p674
sS'Sp12-1333929600Bouldering'
p675
S'72157644065703653'
p676
sS'Sp05-misc'
p677
S'72157644274950003'
p678
sS'Fa01-gm3'
p679
S'72157644120439363'
p680
sS'Sp14-0406-FriendsOf5Creeks'
p681
S'72157643927572515'
p682
sS'Fa05-icecream'
p683
S'72157643892488013'
p684
sS'Sp08-comedynight'
p685
S'72157644122024914'
p686
sS'Sp01-hugo'
p687
S'72157644168368866'
p688
sS'Sp06-movie'
p689
S'72157644097367362'
p690
sS'Fa00-foodbank'
p691
S'72157644177296042'
p692
sS'Fa07-cm'
p693
S'72157644255967384'
p694
sS'Sp09-EngineeringSportsNight'
p695
S'72157644346775264'
p696
sS'Sp03-aa'
p697
S'72157644279245043'
p698
sS'Sp14-0413-BowlingWithBlueprint'
p699
S'72157644334973486'
p700
sS'Fa00-gm3'
p701
S'72157644176491082'
p702
sS'Fa01-castro'
p703
S'72157644115921564'
p704
sS'Fa00-officermeeting'
p705
S'72157644136305616'
p706
sS'Sp11-chinesenewyear'
p707
S'72157644045021656'
p708
sS'Sp12-AlumniBroomball'
p709
S'72157644066290625'
p710
sS'Sp07-zoo'
p711
S'72157644267052654'
p712
sS'Fa03-gm3'
p713
S'72157644186371384'
p714
sS'Fa11-EngineeringSportsNight'
p715
S'72157644159953175'
p716
sS'Sp07-banquet'
p717
S'72157644307582293'
p718
sS'Sp06-psh2'
p719
S'72157644095130546'
p720
sS'Fa03-regionalconf'
p721
S'72157644169146161'
p722
sS'Fa05-staffbake'
p723
S'72157643897453914'
p724
sS'Sp06-psh1'
p725
S'72157644098000472'
p726
sS'Sp05-scavenger'
p727
S'72157644274135843'
p728
sS'Fa05-dodge'
p729
S'72157643894453983'
p730
sS'Fa03-filteredout'
p731
S'72157644131539546'
p732
sS'Sp07-initiation'
p733
S'72157644306623873'
p734
sS'Fa02-elections'
p735
S'72157644003606873'
p736
sS'Sp00-broomballasme'
p737
S'72157644156135104'
p738
sS'Fa03-elections'
p739
S'72157644130100541'
p740
sS'Sp01-comedy'
p741
S'72157644210387471'
p742
sS'Sp00-capflag'
p743
S'72157644101885812'
p744
sS'Sp99-Initiation'
p745
S'72157644259963233'
p746
sS'Fa12-1030-PumpkinCarving'
p747
S'72157644250118371'
p748
sS'Sp04-gm1'
p749
S'72157644055037893'
p750
sS'Fa07-broomball'
p751
S'72157644238210801'
p752
sS'Fa05-eday'
p753
S'72157643949476494'
p754
sS'Sp02-albanybowl'
p755
S'72157643953104185'
p756
sS'Fa04-candmeeting'
p757
S'72157644178175513'
p758
sS'Sp08-bigc'
p759
S'72157644124951085'
p760
sS'Fa12-FleetWeek'
p761
S'72157644248460352'
p762
sS'Fa05-movienight'
p763
S'72157643897664304'
p764
sS'Sp01-bowling'
p765
S'72157644180266202'
p766
sS'Sp04-drun1'
p767
S'72157644055206654'
p768
sS'Sp99-Bball'
p769
S'72157644259917003'
p770
sS'Fa08-InitiationBanquetMattea'
p771
S'72157644338115905'
p772
sS'Sp06-rameshphotos'
p773
S'72157644151488525'
p774
sS'Sp05-zoo'
p775
S'72157644223591421'
p776
sS'Fa10-lunchwiththepres'
p777
S'72157644264998491'
p778
sS'Sp03-rugby'
p779
S'72157644239940295'
p780
sS'Sp03-icecream'
p781
S'72157644278780623'
p782
sS'Fa04-career'
p783
S'72157644106236802'
p784
sS'Sp01-candidatemeeting'
p785
S'72157644223056805'
p786
sS'Fa02-asgame'
p787
S'72157644004397853'
p788
sS'Sp03-dinner'
p789
S'72157644185084196'
p790
sS'Fa08-SausalCreekCleanup'
p791
S'72157644383939383'
p792
sS'Fa04-baking'
p793
S'72157644182640184'
p794
sS'Fa10-candidatemeeting'
p795
S'72157644320246943'
p796
sS'Fa07-donutrun'
p797
S'72157644197155516'
p798
sS'Fa13-MidnightUltimate'
p799
S'72157644099195454'
p800
sS'Sp03-InfamousRogerPicture'
p801
S'72157644248393904'
p802
sS'Sp14-0313-GeneralMeeting1'
p803
S'72157643926768075'
p804
sS'Fa09-CandidateMeeting'
p805
S'72157644320987591'
p806
sS'Sp04-CM'
p807
S'72157644053442913'
p808
sS'Fa00-elections'
p809
S'72157644175822421'
p810
sS'Fa03-scavhunt'
p811
S'72157644170863712'
p812
sS'Sp03-asianart'
p813
S'72157644184340636'
p814
sS'Fa08-PostBroomballDennys'
p815
S'72157644328669252'
p816
sS'Sp10-rockClimbing'
p817
S'72157644231035134'
p818
sS'Sp14-0319-IntersocietalCTF'
p819
S'72157644493991024'
p820
sS'Sp04-arms'
p821
S'72157644058262103'
p822
sS'Fa07-makingstrides'
p823
S'72157644241991192'
p824
sS'Fa03-boardgame'
p825
S'72157644228912833'
p826
sS'Sp13-BotanicalGardens'
p827
S'72157644104255465'
p828
sS'Sp14-0410-ShadowGraffiti'
p829
S'72157644067060946'
p830
sS'Sp06-rock'
p831
S'72157644154893693'
p832
sS'Fa00-gm1'
p833
S'72157644177203491'
p834
sS'Fa00-gm2'
p835
S'72157644175788852'
p836
sS'Fa04-berkfood'
p837
S'72157644106677556'
p838
sS'Sp07-loopt'
p839
S'72157644264869374'
p840
sS'Sp03-movie'
p841
S'72157644226715081'
p842
sS'Fa01-iceskating'
p843
S'72157644115460273'
p844
sS'Fa02-iceskating'
p845
S'72157644003238264'
p846
sS'Fa99-AlumniDinner'
p847
S'72157644265614323'
p848
sS'Sp03-gm2'
p849
S'72157644238267415'
p850
sS'Sp01-jobfair'
p851
S'72157644180611282'
p852
sS'Sp09-CTFwithAIChe'
p853
S'72157644344472205'
p854
sS'Fa01-scavengerhunt'
p855
S'72157644115710924'
p856
sS'Fa05-pizza'
p857
S'72157643950440924'
p858
sS'Sp06-gelato'
p859
S'72157644094277101'
p860
sS'Fa07-gm3'
p861
S'72157644239599311'
p862
sS'Fa07-gm2'
p863
S'72157644290780773'
p864
sS'Fa07-gm1'
p865
S'72157644294322533'
p866
sS'Fa12-1006-IceSkating'
p867
S'72157644248383802'
p868
sS'Fa04-isaac'
p869
S'72157644180222925'
p870
sS'Sp03-midnight'
p871
S'72157644280718193'
p872
sS'Fa01-upebroomball001'
p873
S'72157644121652643'
p874
sS'Sp06-frisbee'
p875
S'72157644098911621'
p876
sS'Fa01-eday'
p877
S'72157644066673726'
p878
sS'Sp13-MembersPotluck'
p879
S'72157644092769502'
p880
sS'Fa03-uiucgradworkshop'
p881
S'72157644129721491'
p882
sS'Sp10-GM3'
p883
S'72157644230258374'
p884
sS'Fa13-BoardGameNight'
p885
S'72157644097906905'
p886
sS'Sp05-calday'
p887
S'72157644181912906'
p888
sS'Sp01-finalbroomball'
p889
S'72157644223394974'
p890
sS'Fa09-PhotoScavengerHuntTeamWorkingOnIt'
p891
S'72157644331605485'
p892
sS'Sp06-om'
p893
S'72157644150327024'
p894
sS'Sp05-hknlympics'
p895
S'72157644273472353'
p896
sS'Fa03-vmwareinfo'
p897
S'72157644172243842'
p898
sS'Fa06-career'
p899
S'72157644055304122'
p900
sS'Fa07-conference'
p901
S'72157644196730876'
p902
sS'Sp09-SportsDay'
p903
S'72157644385834473'
p904
sS'Sp03-ymca'
p905
S'72157644225075662'
p906
sS'Sp04-movie2'
p907
S'72157644055543874'
p908
sS'Sp07-gm1'
p909
S'72157644253278211'
p910
sS'Fa03-KLAtencor'
p911
S'72157644129556306'
p912
sS'Sp07-gm3'
p913
S'72157644252057792'
p914
sS'Sp07-gm2'
p915
S'72157644265108514'
p916
sS'Old-GM'
p917
S'72157644219368175'
p918
sS'Sp12-1331881200AlumniAppreciationDinner'
p919
S'72157644069360873'
p920
sS'Fa05-google'
p921
S'72157643896999915'
p922
sS'Sp01-swedance001'
p923
S'72157644221641415'
p924
sS'Sp06-after'
p925
S'72157644153419005'
p926
sS'Fa04-boardgame2'
p927
S'72157644125472081'
p928
sS'Sp12-1332468000GeneralMeeting2'
p929
S'72157644063627193'
p930
sS'Sp12-1330133400HKNBigCHike'
p931
S'72157644059209823'
p932
sS'Sp13-CalDay'
p933
S'72157644048771711'
p934
sS'Sp13-EngineeringForKids'
p935
S'72157644103981454'
p936
sS'Fa09-PhotoScavengerHuntTeamHarrysKYLiu'
p937
S'72157644332651155'
p938
sS'Fa10-Iceskating'
p939
S'72157644264835971'
p940
sS'Fa13-Fentons'
p941
S'72157644175963603'
p942
sS'Sp01-pmhsbroomball001'
p943
S'72157644192734245'
p944
sS'Fa05-flagfootball'
p945
S'72157643948704004'
p946
sS'Fa03-eegrad'
p947
S'72157644170779561'
p948
sS'Sp01-projectu2001'
p949
S'72157644221748494'
p950
sS'Fa02-gamenight'
p951
S'72157644002710514'
p952
sS'Fa02-peeradvising2'
p953
S'72157644050434594'
p954
sS'Sp05-staffbake'
p955
S'72157644222447272'
p956
sS'Sp04-vgame1'
p957
S'72157644058369273'
p958
sS'Fa07-teamAwesome'
p959
S'72157644240890002'
p960
sS'Fa00-advising'
p961
S'72157644177026901'
p962
sS'Sp04-benjerry'
p963
S'72157644052344383'
p964
sS'Sp05-ultfriz'
p965
S'72157644224234341'
p966
sS'Fa03-cs162review'
p967
S'72157644224675613'
p968
sS'Sp09-Banquet'
p969
S'72157644308823316'
p970
sS'Sp03-TEST'
p971
S'72157644194092166'
p972
sS'Fa03-candidatemtg'
p973
S'72157644172692691'
p974
sS'Fa00-gradschoolseminar'
p975
S'72157644176777261'
p976
sS'Sp00-cm'
p977
S'72157644102267511'
p978
sS'Sp09-GameNight'
p979
S'72157644349002791'
p980
sS'Sp00-calday'
p981
S'72157644156444283'
p982
sS'Sp04-tutordinner'
p983
S'72157644057125074'
p984
sS'Fa01-ultimate001'
p985
S'72157644065790726'
p986
sS'Sp01-friction'
p987
S'72157644224119895'
p988
sS'Fa05-election'
p989
S'72157643897083204'
p990
sS'Sp06-hotornot'
p991
S'72157644153560394'
p992
sS'Sp10-GM1'
p993
S'72157644228736045'
p994
sS'Sp14-0419-LaserTagWithUPE'
p995
S'72157644334543446'
p996
sS'Sp06-lid'
p997
S'72157644095418651'
p998
sS'Fa05-hknlympics'
p999
S'72157643892527954'
p1000
sS'Sp09-PhotoScavengerHuntTeamInfinite'
p1001
S'72157644364643024'
p1002
sS'Sp02-qzar'
p1003
S'72157644002139365'
p1004
sS'Fa12-0930-MembersPotluck'
p1005
S'72157644206345006'
p1006
sS'Sp09-GelatoNight'
p1007
S'72157644346058565'
p1008
sS'Fa06-initiation'
p1009
S'72157644112314364'
p1010
sS'Sp02-offmtgs'
p1011
S'72157644001044164'
p1012
sS'Sp06-eweek'
p1013
S'72157644100771126'
p1014
sS'Sp00-facmixer'
p1015
S'72157644101840701'
p1016
sS'Sp13-GeneralMeeting3'
p1017
S'72157644102844553'
p1018
sS'Sp13-GeneralMeeting2'
p1019
S'72157644051113831'
p1020
sS'Sp13-GeneralMeeting1'
p1021
S'72157644099632605'
p1022
sS'Sp13-Fentons'
p1023
S'72157644093750561'
p1024
sS'Sp04-soccer'
p1025
S'72157644056441183'
p1026
sS'Sp06-gm1'
p1027
S'72157644097404756'
p1028
sS'Sp06-gm2'
p1029
S'72157644094189086'
p1030
sS'Sp06-gm3'
p1031
S'72157644096262861'
p1032
sS'Fa07-banquet'
p1033
S'72157644256322214'
p1034
sS'Fa13-KaraokeWithAWE'
p1035
S'72157644096147394'
p1036
sS'Sp03-blueandgold'
p1037
S'72157644185951676'
p1038
sS'Sp11-CandidateMeeting'
p1039
S'72157644045126402'
p1040
sS'Fa10-HKNgoesonafieryhike'
p1041
S'72157644226984106'
p1042
sS'Fa07-craftsnight'
p1043
S'72157644194373026'
p1044
sS'Fa04-banquet'
p1045
S'72157644181202393'
p1046
sS'Sp02-upebroomball'
p1047
S'72157643999227415'
p1048
sS'Fa05-orientation'
p1049
S'72157643895009005'
p1050
sS'Sp08-atom'
p1051
S'72157644126879483'
p1052
sS'Fa01-welcomeweek001'
p1053
S'72157644120139545'
p1054
sS'Fa06-pshmm'
p1055
S'72157644112867974'
p1056
sS'Sp14-0416-Fentons'
p1057
S'72157644067134096'
p1058
sS'Fa03-nthingsgrad'
p1059
S'72157644169860361'
p1060
sS'Sp08-fentons'
p1061
S'72157644071607441'
p1062
sS'Fa13-Brunchat900Grayson'
p1063
S'72157644042795141'
p1064
sS'Fa06-election'
p1065
S'72157644113005683'
p1066
sS'Sp04-makeupCM'
p1067
S'72157644050830525'
p1068
sS'Sp12-1328216400HKNMembersRockClimbing'
p1069
S'72157644147049603'
p1070
sS'Sp10-iceskating'
p1071
S'72157644212039571'
p1072
sS'Fa01-bowling'
p1073
S'72157644061029832'
p1074
sS'Sp05-2040study'
p1075
S'72157644222399901'
p1076
sS'Fa06-strides'
p1077
S'72157644111368645'
p1078
sS'Sp12-1331366400HKNBigFunPicnic'
p1079
S'72157644069607515'
p1080
sS'Sp08-TeamNirsGonnaLose'
p1081
S'72157644176420215'
p1082
sS'Fa06-abb'
p1083
S'72157644114792333'
p1084
sS'Sp02-tbpbball'
p1085
S'72157644001392714'
p1086
sS'Sp04-shunt'
p1087
S'72157644057053573'
p1088
sS'Fa03-donutrun2'
p1089
S'72157644186696193'
p1090
sS'Fa03-ctf'
p1091
S'72157644170372171'
p1092
sS'Sp13-PicturePuzzleHunt'
p1093
S'72157644047747131'
p1094
sS'Old-Random'
p1095
S'72157644260105533'
p1096
sS'Sp05-alumnibroomball'
p1097
S'72157644224622091'
p1098
sS'Fa03-msinfosession'
p1099
S'72157644174275211'
p1100
sS'Fa00-banquet'
p1101
S'72157644178429821'
p1102
sS'Sp02-eweek'
p1103
S'72157644002133314'
p1104
sS'Fa08-EngineeringSportsNight'
p1105
S'72157644340522234'
p1106
sS'Sp03-potluck'
p1107
S'72157644226915012'
p1108
sS'Fa06-potluck'
p1109
S'72157644113844045'
p1110
sS'Fa04-bowlingieee'
p1111
S'72157644182758603'
p1112
sS'Sp04-Candidates'
p1113
S'72157644118593845'
p1114
sS'Sp05-microsoft'
p1115
S'72157644180786296'
p1116
sS'Sp04-peer2'
p1117
S'72157644054698474'
p1118
sS'Sp01-movienight1'
p1119
S'72157644193219864'
p1120
sS'Sp08-scharffen'
p1121
S'72157644124422744'
p1122
sS'Fa01-icecream'
p1123
S'72157644060457456'
p1124
sS'Fa08-AlumniAppreciationDinner'
p1125
S'72157644329037301'
p1126
sS'Fa08-BigCHike'
p1127
S'72157644289138166'
p1128
sS'Fa06-iceskating'
p1129
S'72157644110528795'
p1130
sS'Fa07-cscavhuntmodestcompetitors'
p1131
S'72157644244414692'
p1132
sS'Fa03-donutrun'
p1133
S'72157644185685523'
p1134
sS'Sp12-OccupyWoz'
p1135
S'72157644118951043'
p1136
sS'Sp05-boardgame1'
p1137
S'72157644232143465'
p1138
sS'Sp05-boardgame2'
p1139
S'72157644222408121'
p1140
sS'Sp01-golfarcadenight'
p1141
S'72157644222581725'
p1142
sS'Sp04-shunt1'
p1143
S'72157644054923605'
p1144
sS'Fa07-jelly'
p1145
S'72157644242545212'
p1146
sS'Fa11-PhotoScavengerHunt'
p1147
S'72157644104330466'
p1148
sS'Sp04-shunt2'
p1149
S'72157644054117463'
p1150
sS'Sp04-shunt5'
p1151
S'72157644054074795'
p1152
sS'Sp04-shunt4'
p1153
S'72157644055800874'
p1154
sS'Sp04-shunt7'
p1155
S'72157644051173083'
p1156
sS'Sp08-gelato'
p1157
S'72157644122883163'
p1158
sS'Sp04-shunt8'
p1159
S'72157644054226585'
p1160
sS'Fa08-SalesforcecomMidtermCheesecakeRunCS3CS61C'
p1161
S'72157644342667354'
p1162
sS'Sp03-videogamenight'
p1163
S'72157644289405913'
p1164
sS'Sp05-potluck'
p1165
S'72157644277744253'
p1166
sS'Fa09-Retreat'
p1167
S'72157644331891735'
p1168
sS'Sp06-relay'
p1169
S'72157644100521226'
p1170
sS'Fa10-memberspotluck'
p1171
S'72157644222194906'
p1172
sS'Fa02-prebiggame'
p1173
S'72157644002688335'
p1174
sS'Fa12-1019-AlumniBroomball'
p1175
S'72157644247398612'
p1176
sS'Fa12-1003-DepartmentBakeOff'
p1177
S'72157644209251976'
p1178
sS'Fa02-banquet'
p1179
S'72157644050094073'
p1180
sS'Fa07-gamenight'
p1181
S'72157644248852735'
p1182
sS'Fa04-amazon'
p1183
S'72157644180605643'
p1184
sS'Sp04-lotr3'
p1185
S'72157644053590753'
p1186
sS'Sp02-elections'
p1187
S'72157643953073523'
p1188
sS'Fa08-PhotoScavengerHuntTeamIngridLovesHavingHerPhotoTaken'
p1189
S'72157644336596164'
p1190
sS'Old-Potluck'
p1191
S'72157644219123615'
p1192
sS'Sp05-soccer'
p1193
S'72157644236347184'
p1194
sS'Sp08-alumnibroomball'
p1195
S'72157644128372963'
p1196
sS'Sp07-comedyclub'
p1197
S'72157644253875681'
p1198
sS'Fa09-GeneralMeeting3'
p1199
S'72157644276332196'
p1200
sS'Sp06-minigolf'
p1201
S'72157644152888714'
p1202
sS'Fa10-broomball'
p1203
S'72157644222739176'
p1204
sS'Fa12-Mugshots'
p1205
S'72157644246185771'
p1206
sS'Fa03-breastcancerwalk'
p1207
S'72157644225779343'
p1208
sS'Sp02-gm3'
p1209
S'72157643999194754'
p1210
sS'Sp05-photosh'
p1211
S'72157644220729321'
p1212
sS'Sp14-0208-MembersPotluck'
p1213
S'72157643928004783'
p1214
sS'Sp10-eggster'
p1215
S'72157644213929761'
p1216
sS'Sp04-CTF2'
p1217
S'72157644055913303'
p1218
sS'Sp03-twostep'
p1219
S'72157644227029831'
p1220
sS'Fa09-GM2andPumpkinCarving'
p1221
S'72157644332201574'
p1222
sS'Fa10-movienight'
p1223
S'72157644266185331'
p1224
sS'Fa06-tilden'
p1225
S'72157644114227265'
p1226
sS'Fa10-HKNbuildsrepairshomesforlowincomefamilies'
p1227
S'72157644264445232'
p1228
sS'Sp06-donut'
p1229
S'72157644149377915'
p1230
sS'Fa07-bbq'
p1231
S'72157644201030346'
p1232
sS'Fa06-gelato'
p1233
S'72157644056231986'
p1234
sS'Sp01-eweek'
p1235
S'72157644210803582'
p1236
sS'Sp06-movie2'
p1237
S'72157644152732933'
p1238
sS'Fa07-pumpkincarving'
p1239
S'72157644254056694'
p1240
sS'Fa01-broomballtourny2'
p1241
S'72157644066485001'
p1242
sS'Sp03-scavhuntkgao'
p1243
S'72157644225880611'
p1244
sS'Sp10-Photoscav'
p1245
S'72157644172503406'
p1246
sS'Sp14-0427-Olympics'
p1247
S'72157644032763159'
p1248
sS'Fa07-foodbank'
p1249
S'72157644254771725'
p1250
sS'Fa04-iceskating'
p1251
S'72157644161198823'
p1252
sS'Sp14-0403-RamenMovieNight'
p1253
S'72157644480182752'
p1254
sS'Fa03-boardgame2'
p1255
S'72157644223935323'
p1256
sS'Sp13-UnofficialDinnerAfterEE40ReviewSession'
p1257
S'72157644147224473'
p1258
sS'Fa06-bakeoff'
p1259
S'72157644059508201'
p1260
sS'Sp06-amd'
p1261
S'72157644149223645'
p1262
sS'Fa07-bowling'
p1263
S'72157644236672852'
p1264
sS'Sp05-gm2'
p1265
S'72157644220169502'
p1266
sS'Sp05-20study'
p1267
S'72157644235986765'
p1268
sS'Fa08-LunchWiththePrez'
p1269
S'72157644283979766'
p1270
sS'Fa06-psh'
p1271
S'72157644058579762'
p1272
sS'Fa03-ibminfo'
p1273
S'72157644186183063'
p1274
sS'Sp01-icecreamsocial'
p1275
S'72157644224256874'
p1276
sS'Sp02-CTF'
p1277
S'72157644002341033'
p1278
sS'Fa06-pshdevnull'
p1279
S'72157644111457024'
p1280
sS'Fa07-faces'
p1281
S'72157644253994164'
p1282
sS'Sp08-pierun'
p1283
S'72157644068258956'
p1284
sS'Sp05-tango'
p1285
S'72157644233910205'
p1286
sS'Fa12-1004-GeneralMeeting1'
p1287
S'72157644245530691'
p1288
sS'Sp10-Banquet'
p1289
S'72157644271592233'
p1290
sS'Fa05-bbq'
p1291
S'72157643898429023'
p1292
sS'Fa13-BerkeleyProject'
p1293
S'72157644093322073'
p1294
sS'Sp07-memberpotluck'
p1295
S'72157644253047211'
p1296
sS'Sp06-upebb'
p1297
S'72157644154790243'
p1298
sS'Sp01-alumnibroomball'
p1299
S'72157644224234985'
p1300
sS'Sp00-broomball'
p1301
S'72157644155994365'
p1302
sS'Sp06-banquet'
p1303
S'72157644152955675'
p1304
sS'Fa00-facultymixer'
p1305
S'72157644176939952'
p1306
sS'Fa03-vidgamenight'
p1307
S'72157644229402593'
p1308
sS'Fa10-HKNgoesonaphotoscavengerhunt'
p1309
S'72157644279933735'
p1310
sS'Sp03-eweek'
p1311
S'72157644235454451'
p1312
sS'Fa04-icecream'
p1313
S'72157644106362572'
p1314
sS'Sp13-EECSUndergraduateTownHall'
p1315
S'72157644053248781'
p1316
sS'Sp06-rice'
p1317
S'72157644153637833'
p1318
sS'Sp06-bowling'
p1319
S'72157644094960771'
p1320
sS'Sp05-lastOM'
p1321
S'72157644218817832'
p1322
sS'Fa02-eday'
p1323
S'72157644050385653'
p1324
sS'Sp14-0423-ESportsNight'
p1325
S'72157644375898151'
p1326
sS'Fa08-MiniGolf'
p1327
S'72157644328429991'
p1328
sS'Fa02-ymca'
p1329
S'72157644003738695'
p1330
sS'Fa06-mpotluck'
p1331
S'72157644111627924'
p1332
sS'Sp13-AlumniBroomball'
p1333
S'72157644050390056'
p1334
sS'Sp03-bayfestival'
p1335
S'72157644227549931'
p1336
sS'Sp13-KaraokeNightwithAWE'
p1337
S'72157644052002996'
p1338
sS'Sp07-videogame'
p1339
S'72157644275664965'
p1340
sS'Fa04-gamebbq'
p1341
S'72157644122491662'
p1342
sS'Sp00-eggster'
p1343
S'72157644156473824'
p1344
sS'Sp09-QualcommDinner'
p1345
S'72157644332091161'
p1346
sS'Sp10-gm2'
p1347
S'72157644225595774'
p1348
sS'Fa04-dodgeball'
p1349
S'72157644123451312'
p1350
sS'Sp09-CandidateMeeting'
p1351
S'72157644405433263'
p1352
sS'Sp03-alumnibroomball'
p1353
S'72157644248660604'
p1354
sS'Fa99-FacultyMixer'
p1355
S'72157644224870924'
p1356
sS'Fa05-cand'
p1357
S'72157643896652253'
p1358
sS'Old-General'
p1359
S'72157644207728872'
p1360
sS'Sp10-Gregoires'
p1361
S'72157644226978535'
p1362
sS'Sp04-meeting'
p1363
S'72157644052663204'
p1364
sS'Fa01-candidatepictures'
p1365
S'72157644115236433'
p1366
sS'Fa03-amazoninfosession'
p1367
S'72157644131292071'
p1368
sS'Sp06-football'
p1369
S'72157644155167515'
p1370
sS'Fa01-candidatemeeting'
p1371
S'72157644066301912'
p1372
sS'Fa08-PeerAdvising'
p1373
S'72157644321476111'
p1374
sS'Sp13-BEARS2013'
p1375
S'72157644109662655'
p1376
sS'Sp06-couch'
p1377
S'72157644095175066'
p1378
sS'Fa11-CandidateIceCream'
p1379
S'72157644102799881'
p1380
sS'Sp14-0314-HKNAndAWEKaraoke'
p1381
S'72157643929099475'
p1382
sS'Fa10-HKNplaysTexasHoldem'
p1383
S'72157644317313293'
p1384
sS'Sp09-Bowling'
p1385
S'72157644344699154'
p1386
sS'Sp00-aad'
p1387
S'72157644101809036'
p1388
sS'Sp09-AlumniAppreciationDinner'
p1389
S'72157644363661424'
p1390
sS'Sp08-TeamAnonymous'
p1391
S'72157644070402872'
p1392
sS'Sp00-jobfair'
p1393
S'72157644156182963'
p1394
sS'Fa01-offpics'
p1395
S'72157644060713661'
p1396
sS'Sp01-picnic001'
p1397
S'72157644169177256'
p1398
sS'Fa07-conferencewelcome'
p1399
S'72157644236311132'
p1400
sS'Sp09-PhotoScavengerHuntTeamPotato'
p1401
S'72157644333713322'
p1402
sS'Sp05-botanical'
p1403
S'72157644224512821'
p1404
sS'Sp12-PiAndBoardGameNight'
p1405
S'72157644064437236'
p1406
sS'Fa08-Picnic'
p1407
S'72157644334236895'
p1408
sS'Fa06-craftsnight'
p1409
S'72157644110165584'
p1410
sS'Fa07-minigolf'
p1411
S'72157644295131723'
p1412
sS'Fa13-BerkeleyHalfMarathon'
p1413
S'72157644043569122'
p1414
sS'Sp07-bowling'
p1415
S'72157644251487922'
p1416
sS'Fa03-sp03grad'
p1417
S'72157644129343832'
p1418
sS'Sp05-facultymix'
p1419
S'72157644235630945'
p1420
sS'Sp04-banquet'
p1421
S'72157644056879483'
p1422
sS'Sp13-EngineeringSportsNight'
p1423
S'72157644105698774'
p1424
sS'Sp07-ultimate'
p1425
S'72157644263122891'
p1426
sS'Sp07-upebroomball'
p1427
S'72157644265565954'
p1428
sS'Sp09-IceSkating'
p1429
S'72157644350234322'
p1430
sS'Sp04-ultimate'
p1431
S'72157644057850684'
p1432
sS'Sp06-factset'
p1433
S'72157644074729181'
p1434
sS'Sp12-1329526800HKNCandidateIceCream'
p1435
S'72157644060414794'
p1436
sS'Sp04-gm3'
p1437
S'72157644054029045'
p1438
sS'Fa04-icecreamsocial'
p1439
S'72157644126934552'
p1440
sS'Fa01-ps2night'
p1441
S'72157644066902446'
p1442
sS'Sp04-drun2'
p1443
S'72157644051209594'
p1444
sS'Fa01-bread'
p1445
S'72157644066783732'
p1446
sS'Fa04-icecreamsocial2'
p1447
S'72157644123147121'
p1448
sS'Fa13-ESportsNight'
p1449
S'72157644095427654'
p1450
sS'Fa08-Bowling'
p1451
S'72157644336764695'
p1452
sS'Fa05-gm3'
p1453
S'72157643894394935'
p1454
sS'Fa05-gm2'
p1455
S'72157643892741875'
p1456
sS'Sp05-bridgedinner'
p1457
S'72157644220489982'
p1458
sS'Sp13-RebuildingTogether'
p1459
S'72157644050327621'
p1460
sS'Sp13-MembersPieMaking'
p1461
S'72157644147372874'
p1462
sS'Sp07-bbq'
p1463
S'72157644253554621'
p1464
sS'Sp10-bowling'
p1465
S'72157644225725984'
p1466
sS'Fa03-casinonight'
p1467
S'72157644171222462'
p1468
sS'Fa11-HKNCM'
p1469
S'72157644156824103'
p1470
sS'Sp10-smashNight'
p1471
S'72157644215247892'
p1472
sS'Fa05-hike'
p1473
S'72157643951300193'
p1474
sS'Sp99-FacultyMixer'
p1475
S'72157644206090591'
p1476
sS'Fa06-videogamenight'
p1477
S'72157644114785415'
p1478
sS'Fa12-1103-FOFC'
p1479
S'72157644260074805'
p1480
sS'Sp02-rebuilding'
p1481
S'72157644000591764'
p1482
sS'Sp14-0412-CalDay'
p1483
S'72157644375271902'
p1484
sS'Fa09-BallroomDancing'
p1485
S'72157644332946695'
p1486
sS'Sp04-yahoo'
p1487
S'72157644057324044'
p1488
sS'Sp05-YMCA'
p1489
S'72157644224331691'
p1490
sS'Sp04-baking'
p1491
S'72157644057360735'
p1492
sS'Fa03-alumnibroomball'
p1493
S'72157644175412781'
p1494
sS'Sp08-atom001'
p1495
S'72157644123204394'
p1496
sS'Sp04-apple'
p1497
S'72157644055659823'
p1498
sS'Sp00-picnic'
p1499
S'72157644156406935'
p1500
sS'Sp06-boardgn'
p1501
S'72157644149847694'
p1502
sS'Sp04-longhorn'
p1503
S'72157644058143555'
p1504
sS'Fa01-kickingphoebus'
p1505
S'72157644065875902'
p1506
sS'Fa05-faces'
p1507
S'72157643896975194'
p1508
sS'Fa04-jellybelly'
p1509
S'72157644125521996'
p1510
sS'Fa08-PhotoScavengerHuntTeamTrack'
p1511
S'72157644378900463'
p1512
sS'Fa06-ee20review'
p1513
S'72157644110251793'
p1514
sS'Fa08-PhotoScavengerHuntTeamRysangela'
p1515
S'72157644343789624'
p1516
sS'Sp07-dimsum'
p1517
S'72157644275949334'
p1518
sS'Sp04-potluck'
p1519
S'72157644057213745'
p1520
sS'Fa06-EECScareerfair'
p1521
S'72157644111122394'
p1522
sS'Sp07-yogurt'
p1523
S'72157644266390224'
p1524
sS'Fa13-BowlingWithBlueprint'
p1525
S'72157644044600516'
p1526
sS'Fa02-calcleanup'
p1527
S'72157644002712585'
p1528
sS'Fa03-aerospaceinfo'
p1529
S'72157644131016061'
p1530
sS'Fa01-graduation'
p1531
S'72157644115609223'
p1532
sS'Sp03-candidatepictures'
p1533
S'72157644238240604'
p1534
sS'Fa08-IceCreamSocial'
p1535
S'72157644342967555'
p1536
sS'Fa03-peeradvising2'
p1537
S'72157644174818452'
p1538
sS'Sp10-CandidateIceCreamSocial'
p1539
S'72157644230332365'
p1540
sS'Fa03-peeradvising1'
p1541
S'72157644129744131'
p1542
sS'Sp12-1329976800HKNMidnightUltimate'
p1543
S'72157644063473814'
p1544
sS'Sp14-0405-AlumniAppreciationDinner'
p1545
S'72157643928436223'
p1546
sS'Fa08-PhotoScavengerHuntTeamGroovy'
p1547
S'72157644320740932'
p1548
sS'Sp99-General'
p1549
S'72157644259974463'
p1550
sS'Fa10-initiationbanquet'
p1551
S'72157644279319184'
p1552
sS'Fa04-shunt3'
p1553
S'72157644181580104'
p1554
sS'Fa04-shunt2'
p1555
S'72157644123408481'
p1556
sS'Fa04-shunt1'
p1557
S'72157644179739095'
p1558
sS'Sp13-PaintballwithCSUA'
p1559
S'72157644104243683'
p1560
sS'Fa09-TriviaNight'
p1561
S'72157644317062492'
p1562
sS'Sp08-rockclimbing'
p1563
S'72157644067651991'
p1564
sS'Fa04-orientation'
p1565
S'72157644179032965'
p1566
sS'Fa04-shunt4'
p1567
S'72157644126491611'
p1568
sS'Sp08-TeamNirsTeam'
p1569
S'72157644128126505'
p1570
sS'Fa02-acm'
p1571
S'72157644005224113'
p1572
sS'Sp06-hknlympics'
p1573
S'72157644074885281'
p1574
sS'Sp07-gelato'
p1575
S'72157644265064334'
p1576
sS'Sp08-upebroomball'
p1577
S'72157644124784933'
p1578
sS'Sp14-0424-MurderMysteryNight'
p1579
S'72157644347886332'
p1580
sS'Sp08-initiation'
p1581
S'72157644126175284'
p1582
sS'Sp01-gm3'
p1583
S'72157644208168732'
p1584
sS'Sp01-gm2'
p1585
S'72157644180608791'
p1586
sS'Fa06-movienight'
p1587
S'72157644112744595'
p1588
sS'Fa05-career'
p1589
S'72157643877657693'
p1590
sS'Sp01-ejcbroomball'
p1591
S'72157644180322412'
p1592
sS'Sp04-sfmoma'
p1593
S'72157644055166424'
p1594
sS'Sp09-Fentons'
p1595
S'72157644406504033'
p1596
sS'Sp13-PeerAdvising'
p1597
S'72157644045492896'
p1598
sS'Sp12-DimSum'
p1599
S'72157644068493624'
p1600
sS'Sp06-ice'
p1601
S'72157644097222816'
p1602
sS'Fa04-tutor'
p1603
S'72157644129203216'
p1604
sS'Sp04-dtom'
p1605
S'72157644054593375'
p1606
sS'Sp05-election'
p1607
S'72157644235700895'
p1608
sS'Sp03-tbpultimate'
p1609
S'72157644185101156'
p1610
sS'Sp05-musicfestival'
p1611
S'72157644182800776'
p1612
sS'Sp03-mugs'
p1613
S'72157644237820485'
p1614
sS'Sp12-1335024000HKNCalDay'
p1615
S'72157644069185643'
p1616
sS'Fa09-PhotoScavengerHuntMiscellaneous'
p1617
S'72157644318016551'
p1618
sS'Fa08-PhotoScavengerHuntTeamSkooter'
p1619
S'72157644341222664'
p1620
sS'Sp05-videogamenight'
p1621
S'72157644224280052'
p1622
sS'Fa00-initiation'
p1623
S'72157644176642422'
p1624
sS'Fa05-bowling'
p1625
S'72157643893937973'
p1626
sS'Fa10-HKNplaystraditionalgames'
p1627
S'72157644264886492'
p1628
sS'Fa13-CandidateMeeting'
p1629
S'72157644098495813'
p1630
sS'Sp01-bnc'
p1631
S'72157644168544696'
p1632
sS'Fa06-cheeseboard'
p1633
S'72157644114745443'
p1634
sS'Sp09-EastshoreStateParkWildlife'
p1635
S'72157644387036703'
p1636
sS'Sp02-ejcbroomball'
p1637
S'72157643953519853'
p1638
sS'Fa06-missionpeak'
p1639
S'72157644055750232'
p1640
sS'Fa01-aajason'
p1641
S'72157644060456752'
p1642
sS'Sp05-candidatepictures'
p1643
S'72157644219023052'
p1644
sS'Fa06-after'
p1645
S'72157644113477045'
p1646
sS'Fa09-Potluck'
p1647
S'72157644276285846'
p1648
sS'Sp05-palmone'
p1649
S'72157644237285564'
p1650
sS'Fa00-tennischallenge'
p1651
S'72157644230834283'
p1652
sS'Sp13-ESportsNight'
p1653
S'72157644105158533'
p1654
sS'Fa02-qzar'
p1655
S'72157644050505293'
p1656
sS'Sp12-HNKBeachTrip'
p1657
S'72157644067108123'
p1658
sS'Sp03-cand'
p1659
S'72157644239352335'
p1660
sS'Sp05-careerfair'
p1661
S'72157644232567575'
p1662
sS'Fa10-generalmeeting3'
p1663
S'72157644267267521'
p1664
sS'Sp03-TOPRINT'
p1665
S'72157644235536831'
p1666
sS'Fa04-appletalk'
p1667
S'72157644125108731'
p1668
sS'Fa10-HKNenjoysFentonsicecream'
p1669
S'72157644320457693'
p1670
sS'Fa07-dimsum'
p1671
S'72157644243738292'
p1672
sS'Sp14-0426-AlumniBroomBall'
p1673
S'72157644032740698'
p1674
sS'Sp06-agilent'
p1675
S'72157644097280021'
p1676
sS'Fa01-tailgate'
p1677
S'72157644060611572'
p1678
sS'Sp04-dunktank'
p1679
S'72157644053568884'
p1680
sS'Fa00-fl00banquet'
p1681
S'72157644136113586'
p1682
sS'Sp07-cm'
p1683
S'72157644307372613'
p1684
sS'Sp05-vmware'
p1685
S'72157644182762766'
p1686
sS'Sp05-budfactory'
p1687
S'72157644223240871'
p1688
sS'Sp10-lunchwprez'
p1689
S'72157644272928433'
p1690
sS'Sp05-61cstudy'
p1691
S'72157644233657104'
p1692
sS'Fa12-MidnightUltimate'
p1693
S'72157644264212504'
p1694
sS'Sp01-alumni'
p1695
S'72157644193598874'
p1696
sS'Fa08-RockClimbing'
p1697
S'72157644337073434'
p1698
sS'Sp02-night'
p1699
S'72157644002524393'
p1700
sS'Fa05-vc'
p1701
S'72157643893265614'
p1702
sS'Old-TBPBBall'
p1703
S'72157644289023843'
p1704
sS'Fa02-videogamenight'
p1705
S'72157644051023853'
p1706
sS'Fa04-trailhacking'
p1707
S'72157644106501916'
p1708
sS'Sp03-mealservice1'
p1709
S'72157644279176753'
p1710
sS'Sp03-mealservice2'
p1711
S'72157644239892845'
p1712
sS'Fa03-icecream'
p1713
S'72157644129634021'
p1714
sS'Fa03-welcome'
p1715
S'72157644185780945'
p1716
sS'Sp05-initiation'
p1717
S'72157644180301126'
p1718
sS'Fa03-altera'
p1719
S'72157644130676472'
p1720
sS'Fa11-StaffAppreciationBakeOff'
p1721
S'72157644160340613'
p1722
sS'Sp01-advising'
p1723
S'72157644222616094'
p1724
sS'Sp08-Team6'
p1725
S'72157644068616956'
p1726
sS'Sp07-factset'
p1727
S'72157644251690681'
p1728
sS'Sp07-jellybelly'
p1729
S'72157644266007245'
p1730
sS'Sp06-members'
p1731
S'72157644100945401'
p1732
sS'Sp02-new'
p1733
S'72157644001800623'
p1734
sS'Sp08-TeamPinkFluffyBunnies'
p1735
S'72157644121965175'
p1736
sS'Sp13-SWEMiniU'
p1737
S'72157644049358126'
p1738
sS'Sp05-gm1'
p1739
S'72157644235707104'
p1740
sS'Fa01-potluck'
p1741
S'72157644121148925'
p1742
sS'Fa01-basketballchallenge'
p1743
S'72157644120455624'
p1744
sS'Sp00-bball'
p1745
S'72157644101688116'
p1746
sS'Fa10-gm1'
p1747
S'72157644223981876'
p1748
sS'Fa11-HKNGM1'
p1749
S'72157644106292411'
p1750
sS'Fa00-trailhacking'
p1751
S'72157644175303662'
p1752
sS'Sp10-hikebigc'
p1753
S'72157644231872415'
p1754
sS'Sp12-1333681200DancingwithSWE'
p1755
S'72157644062018673'
p1756
sS'Sp03-alumnibroomball2'
p1757
S'72157644280946823'
p1758
sS'Fa04-videogame'
p1759
S'72157644183643174'
p1760
sS'Fa00-UPEbroomball'
p1761
S'72157644176658531'
p1762
sS'Fa06-banquet'
p1763
S'72157644058776791'
p1764
sS'Fa12-1017-GeneralMeeting2'
p1765
S'72157644207934306'
p1766
sS'Fa02-ctf'
p1767
S'72157644011506425'
p1768
sS'Sp14-0309-DimSum'
p1769
S'72157643927737333'
p1770
sS'Fa12-BoardGameNight'
p1771
S'72157644249353852'
p1772
sS'Sp05-supbowlpot'
p1773
S'72157644235203175'
p1774
sS'Fa00-hockey'
p1775
S'72157644179504321'
p1776
sS'Fa03-alumndinner'
p1777
S'72157644184938933'
p1778
sS'Fa08-Paintball'
p1779
S'72157644327328231'
p1780
sS'Sp04-micro1'
p1781
S'72157644056168903'
p1782
sS'Fa01-trailhacking001'
p1783
S'72157644120447935'
p1784
sS'Sp08-gamenight'
p1785
S'72157644122830624'
p1786
sS'Fa07-benandjerrys'
p1787
S'72157644248375845'
p1788
sS'Sp09-PhotoScavengerHuntTeamOmegaForce'
p1789
S'72157644346204284'
p1790
sS'Fa10-HKNcarvespumpkins'
p1791
S'72157644264627702'
p1792
sS'Sp08-slideshow'
p1793
S'72157644069814506'
p1794
sS'Sp09-DepartmentBakeoff'
p1795
S'72157644330390272'
p1796
sS'Sp03-scavhuntchan'
p1797
S'72157644183865016'
p1798
sS'Sp05-movienight2'
p1799
S'72157644237898924'
p1800
sS'Fa04-upebroomball'
p1801
S'72157644177739153'
p1802
sS'Fa02-alumnibroomball2'
p1803
S'72157644050009043'
p1804
sS'Fa05-initiation'
p1805
S'72157643895323254'
p1806
sS'Sp14-0304-CandidateMeeting'
p1807
S'72157643927842393'
p1808
sS'Sp08-gm2'
p1809
S'72157644068574912'
p1810
sS'Sp08-gm3'
p1811
S'72157644071361281'
p1812
sS'Sp13-CandidateMeeting'
p1813
S'72157644147609953'
p1814
sS'Fa09-HKNBowlingNight'
p1815
S'72157644318457322'
p1816
sS'Fa09-AlumniBroomball'
p1817
S'72157644317819402'
p1818
sS'Fa05-game'
p1819
S'72157643893837915'
p1820
sS'Fa03-foodhousing'
p1821
S'72157644170260041'
p1822
sS'Fa06-gm3'
p1823
S'72157644111899815'
p1824
sS'Sp14-0316-Picnic'
p1825
S'72157643929867555'
p1826
sS'Fa08-BlueAngels'
p1827
S'72157644383386023'
p1828
sS'Sp09-FacesofEECS'
p1829
S'72157644311040566'
p1830
sS'Sp03-scavhunt'
p1831
S'72157644227191521'
p1832
sS'Fa05-harry'
p1833
S'72157643894165623'
p1834
sS'Fa11-SoftballwithAiChE'
p1835
S'72157644156424215'
p1836
sS'Sp05-ctf'
p1837
S'72157644181299526'
p1838
sS'Fa06-gm1'
p1839
S'72157644112416055'
p1840
sS'Sp13-MovieNight'
p1841
S'72157644107957553'
p1842
sS'Sp03-calday'
p1843
S'72157644185893516'
p1844
sS'Fa06-members'
p1845
S'72157644059818732'
p1846
sS'Sp14-0426-RebuildingTogether'
p1847
S'72157644032694700'
p1848
sS'Sp12-1333827900Eggster'
p1849
S'72157644068801985'
p1850
sS'Fa02-officerPics'
p1851
S'72157644050836613'
p1852
sS'Sp12-PhotoScavengerHunt'
p1853
S'72157644067232223'
p1854
sS'Sp13-MembersIceCream'
p1855
S'72157644147279353'
p1856
sS'Fa09-HKNGameNight'
p1857
S'72157644333537344'
p1858
sS'Sp02-initiation'
p1859
S'72157643999936324'
p1860
sS'Fa00-fl00initiation'
p1861
S'72157644177389061'
p1862
sS'Sp08-potluck'
p1863
S'72157644072730101'
p1864
sS'Fa02-peeradvising'
p1865
S'72157644003434475'
p1866
sS'Sp10-aad'
p1867
S'72157644215708411'
p1868
sS'Sp06-mafia'
p1869
S'72157644155218383'
p1870
sS'Fa09-PhotoScavengerHuntTeam'
p1871
S'72157644333612535'
p1872
sS'Sp08-karaoke'
p1873
S'72157644072305932'
p1874
sS'Sp05-googlerun'
p1875
S'72157644222264811'
p1876
sS'Sp10-casinonight'
p1877
S'72157644230274294'
p1878
sS'Sp04-trailhacking'
p1879
S'72157644051341463'
p1880
sS'Fa04-gm1'
p1881
S'72157644125102442'
p1882
sS'Fa11-DimSumBrunch'
p1883
S'72157644160544505'
p1884
sS'Sp02-candidatepictures'
p1885
S'72157643952726153'
p1886
sS'Sp05-comedynight'
p1887
S'72157644218838112'
p1888
sS'Sp07-icecream'
p1889
S'72157644264201905'
p1890
sS'Fa03-pregamebbq1'
p1891
S'72157644173826941'
p1892
sS'Fa03-pregamebbq2'
p1893
S'72157644169382921'
p1894
sS'Fa05-grads'
p1895
S'72157643895756183'
p1896
sS'Sp09-PhotoScavengerHuntTeamSandy'
p1897
S'72157644386436263'
p1898
sS'Sp05-bam'
p1899
S'72157644181717226'
p1900
sS'Fa05-psh'
p1901
S'72157643948256845'
p1902
sS'Sp01-upebroomball001'
p1903
S'72157644224504955'
p1904
sS'Fa03-candidatepictures'
p1905
S'72157644183950975'
p1906
sS'Sp02-icecream'
p1907
S'72157643952108074'
p1908
sS'Fa00-potluck'
p1909
S'72157644191746685'
p1910
sS'Sp07-gm2slides'
p1911
S'72157644267150744'
p1912
sS'Sp14-0429-RBFN'
p1913
S'72157644079129668'
p1914
sS'Sp02-everything'
p1915
S'72157643999417235'
p1916
sS'Fa08-Retreat'
p1917
S'72157644341452105'
p1918
sS'Fa02-bowling'
p1919
S'72157644004148893'
p1920
sS'Fa11-RebuildingTogether'
p1921
S'72157644160072754'
p1922
sS'Fa02-naanandcurry'
p1923
S'72157644002902084'
p1924
sS'Sp04-eggster2'
p1925
S'72157644055450255'
p1926
sS'Fa99-Picnic'
p1927
S'72157644170060536'
p1928
sS'Sp09-HKNOlympics'
p1929
S'72157644292338026'
p1930
sS'Fa03-scavhuntdhsu'
p1931
S'72157644226498733'
p1932
sS'Sp12-ESportsNight'
p1933
S'72157644068179363'
p1934
sS'Fa02-cancerwalk'
p1935
S'72157644002564885'
p1936
sS'Sp03-scavhuntaaronj'
p1937
S'72157644227244651'
p1938
sS'Fa04-yahootechtalk'
p1939
S'72157644126221762'
p1940
sS'Fa03-potluck'
p1941
S'72157644172776862'
p1942
sS'Sp08-photoscav'
p1943
S'72157644125116425'
p1944
sS'Sp02-ejcbroomballtournament'
p1945
S'72157644002807153'
p1946
sS'Sp03-qzar'
p1947
S'72157644186062086'
p1948
sS'Sp04-eggster'
p1949
S'72157644053953815'
p1950
sS'Sp10-membersmovienight'
p1951
S'72157644216099471'
p1952
sS'Fa01-donut2'
p1953
S'72157644115303304'
p1954
sS'Sp09-Eggster'
p1955
S'72157644331043692'
p1956
sS'Fa12-1028-DimSum'
p1957
S'72157644248173172'
p1958
sS'Sp03-icecream2'
p1959
S'72157644234763512'
p1960
sS'Sp09-Initiation'
p1961
S'72157644310305646'
p1962
sS'Sp04-careerfair'
p1963
S'72157644051319805'
p1964
sS'Fa01-banquet2'
p1965
S'72157644120680704'
p1966
sS'Sp04-tokyogf'
p1967
S'72157644051460813'
p1968
sS'Sp14-0321-BoardGameNight'
p1969
S'72157643929294723'
p1970
sS'Fa06-scavpikachu'
p1971
S'72157644111208614'
p1972
sS'Fa11-BoardGameNight'
p1973
S'72157644160664093'
p1974
sS'Sp06-open'
p1975
S'72157644099545481'
p1976
sS'Fa03-scavhuntttd'
p1977
S'72157644129862096'
p1978
sS'Sp14-0403-GeneralMeeting2'
p1979
S'72157643930677263'
p1980
sS'Fa02-candidatepictures'
p1981
S'72157644002967975'
p1982
sS'Sp03-ohloneworkday'
p1983
S'72157644281417313'
p1984
sS'Sp08-midnight'
p1985
S'72157644072291051'
p1986
sS'Fa02-alumnibroomball'
p1987
S'72157644050489114'
p1988
sS'Fa07-ee20reviewsession'
p1989
S'72157644194319956'
p1990
sS'Fa07-teamdisgruntled'
p1991
S'72157644253466734'
p1992
sS'Sp13-RootBeerFloatNight'
p1993
S'72157644108179755'
p1994
sS'Sp12-1330398900HKNBowlingNight'
p1995
S'72157644065799423'
p1996
sS'Fa06-amazon'
p1997
S'72157644058291321'
p1998
sS'Sp05-basketball'
p1999
S'72157644223108911'
p2000
sS'Fa00-picnic'
p2001
S'72157644192572944'
p2002
sS'Sp13-Friendsof5Creeks'
p2003
S'72157644107921293'
p2004
sS'Fa07-fentons'
p2005
S'72157644253194914'
p2006
sS'Fa06-peer'
p2007
S'72157644112232584'
p2008
sS'Fa10-HKNhelpsoutatfleetweek'
p2009
S'72157644278253945'
p2010
sS'Fa01-eecsbroomball'
p2011
S'72157644060341101'
p2012
sS'Sp10-craftsnight'
p2013
S'72157644211246782'
p2014
sS'Sp05-aad'
p2015
S'72157644275284413'
p2016
sS'Fa06-bridgelunch'
p2017
S'72157644110450274'
p2018
sS'Sp10-lanparty'
p2019
S'72157644231437045'
p2020
sS'Sp04-hp'
p2021
S'72157644058120005'
p2022
sS'Fa01-aa'
p2023
S'72157644061006116'
p2024
sS'Sp06-bball'
p2025
S'72157644149388963'
p2026
sS'Fa07-teamtitans'
p2027
S'72157644243370631'
p2028
sS'Fa03-tbphknbball'
p2029
S'72157644131973002'
p2030
sS'Fa09-CommunityServiceEastshoreCleanup'
p2031
S'72157644333776904'
p2032
sS'Sp02-facultymixer'
p2033
S'72157644000559944'
p2034
sS'Sp03-facultymixer'
p2035
S'72157644185325656'
p2036
sS'Sp06-initiation'
p2037
S'72157644096925936'
p2038
sS'Sp01-officermtg001'
p2039
S'72157644210333182'
p2040
sS'Sp01-vball001'
p2041
S'72157644224525985'
p2042
sS'Fa05-aad'
p2043
S'72157643894456134'
p2044
sS'Sp12-1332000000E4K'
p2045
S'72157644061418564'
p2046
sS'Fa00-ultimatefrisbee'
p2047
S'72157644191358005'
p2048
sS'Sp05-candidmeet'
p2049
S'72157644274689973'
p2050
sS'Fa05-blue'
p2051
S'72157643893357233'
p2052
sS'Sp12-1330893000HKNIceSkating'
p2053
S'72157644059321923'
p2054
sS'Fa03-tbpfrisbee'
p2055
S'72157644132327991'
p2056
sS'Sp03-sobaypicnic'
p2057
S'72157644235107272'
p2058
sS'Fa04-gre2'
p2059
S'72157644183594985'
p2060
sS'Fa07-microsoftpierun'
p2061
S'72157644245370781'
p2062
sS'Sp01-GM1'
p2063
S'72157644222013194'
p2064
sS'Sp06-career'
p2065
S'72157644074474976'
p2066
sS'Fa03-initiation'
p2067
S'72157644169216201'
p2068
sS'Fa00-armwrestle'
p2069
S'72157644191282395'
p2070
sS'Sp06-bridge'
p2071
S'72157644074836101'
p2072
sS'Fa02-graduation'
p2073
S'72157644003481195'
p2074
sS'Sp01-facultymixer'
p2075
S'72157644168185846'
p2076
sS'Fa11-AlumniBroomball'
p2077
S'72157644103524772'
p2078
sS'Fa03-foodbank'
p2079
S'72157644170497642'
p2080
sS'Sp12-SWEMiniU'
p2081
S'72157644063879404'
p2082
sS'Fa07-upe'
p2083
S'72157644254922375'
p2084
sS'Fa00-icecreamsocial2'
p2085
S'72157644230688073'
p2086
sS'Fa04-boardgame'
p2087
S'72157644128518036'
p2088
sS'Fa05-walk'
p2089
S'72157643892102535'
p2090
sS'Fa07-iceskating'
p2091
S'72157644236371821'
p2092
sS'Sp08-paintball'
p2093
S'72157644122087253'
p2094
sS'Fa03-eday'
p2095
S'72157644172603862'
p2096
sS'Sp08-TeamSandy'
p2097
S'72157644072520192'
p2098
sS'Fa02-mondogelato'
p2099
S'72157644003885635'
p2100
sS'Fa00-bowling'
p2101
S'72157644230571703'
p2102
sS'Fa13-IntersocietalHalloweenNight'
p2103
S'72157644043541181'
p2104
sS'Sp14-0402-MembersBakeoff'
p2105
S'72157643927554683'
p2106
sS'Fa10-alumniappreciationdinner'
p2107
S'72157644276427274'
p2108
sS'Sp14-0419-DinnerWithPredwin'
p2109
S'72157644375177872'
p2110
sS'Fa07-gelato'
p2111
S'72157644236783411'
p2112
sS'Fa05-donut'
p2113
S'72157643894966843'
p2114
sS'Fa03-qwestinfosession'
p2115
S'72157644172780981'
p2116
sS'Sp10-membersicecream'
p2117
S'72157644226439505'
p2118
sS'Fa04-potluck'
p2119
S'72157644127205012'
p2120
sS'Fa10-HKNplayssports'
p2121
S'72157644264352852'
p2122
sS'Sp01-sandcraft001'
p2123
S'72157644208155252'
p2124
sS'Sp03-mschat'
p2125
S'72157644226275212'
p2126
sS'Fa07-soccer'
p2127
S'72157644242493052'
p2128
sS'Fa08-studydestress'
p2129
S'72157644258007935'
p2130
sS'Fa05-pshBetterthanNaren'
p2131
S'72157643948038835'
p2132
sS'Fa08-EngineeringSocietyMixer'
p2133
S'72157644338515004'
p2134
sS'Fa08-RootBeerFloatNight'
p2135
S'72157644288346576'
p2136
sS'Fa08-PhotoScavengerHuntTeam2sComplement'
p2137
S'72157644336138095'
p2138
sS'Sp03-elections'
p2139
S'72157644238015335'
p2140
sS'Fa12-MidnightBigCHike'
p2141
S'72157644263812585'
p2142
sS'Sp05-irishdance'
p2143
S'72157644275088483'
p2144
sS'Fa10-candidateofficersportsday'
p2145
S'72157644221926326'
p2146
sS'Sp05-frizgolf'
p2147
S'72157644232257035'
p2148
sS'Sp14-0420-FireTrailHike'
p2149
S'72157644032923259'
p2150
sS'Fa03-gm2'
p2151
S'72157644184786014'
p2152
sS'Fa03-gm1'
p2153
S'72157644169530392'
p2154
sS'Sp10-GameNight'
p2155
S'72157644216133142'
p2156
sS'Fa05-bridgedinner'
p2157
S'72157643894290693'
p2158
sS'Fa01-grad2'
p2159
S'72157644115037865'
p2160
sS'Fa02-misc'
p2161
S'72157644004466353'
p2162
sS'Sp13-PiDayandBoardGameNight'
p2163
S'72157644109948814'
p2164
sS'Fa07-team2cool'
p2165
S'72157644239032922'
p2166
sS'Sp04-facultymix'
p2167
S'72157644055114605'
p2168
sS'Sp00-broomballupe'
p2169
S'72157644155885185'
p2170
sS'Fa09-CasinoNight'
p2171
S'72157644318655341'
p2172
sS'Old-ScavHunt'
p2173
S'72157644220276965'
p2174
sS'Fa03-scavhuntfhsu'
p2175
S'72157644185412473'
p2176
sS'Sp02-jobfair'
p2177
S'72157643953705633'
p2178
sS'Fa00-francis'
p2179
S'72157644176418342'
p2180
sS'Fa03-scavhuntaaronj'
p2181
S'72157644225590583'
p2182
sS'Sp06-aad'
p2183
S'72157644095177012'
p2184
sS'Sp12-DepartmentBakeOff'
p2185
S'72157644064905673'
p2186
sS'Sp10-esn'
p2187
S'72157644269838693'
p2188
sS'Fa05-potluck'
p2189
S'72157643949315585'
p2190
sS'Fa02-concert'
p2191
S'72157644004581155'
p2192
sS'Fa04-bridgedinner'
p2193
S'72157644122584012'
p2194
sS'Sp03-foodhouse'
p2195
S'72157644239910334'
p2196
sS'Fa08-PumpkinCarving'
p2197
S'72157644379579983'
p2198
sS'Fa01-alumnibroomball'
p2199
S'72157644121601433'
p2200
sS'Sp06-paintball'
p2201
S'72157644074697856'
p2202
sS'Fa12-RebuildingTogether'
p2203
S'72157644302761503'
p2204
sS'Fa05-casino'
p2205
S'72157643950582734'
p2206
sS'Sp10-candidatemeeting'
p2207
S'72157644174553766'
p2208
sS'Sp01-lasertag'
p2209
S'72157644169035146'
p2210
sS'Fa12-LunchWithPres'
p2211
S'72157644248443642'
p2212
sS'Sp03-misc'
p2213
S'72157644238675834'
p2214
sS'Sp01-nicksjobfair'
p2215
S'72157644138127806'
p2216
sS'Fa04-nthings'
p2217
S'72157644128781996'
p2218
sS'Fa06-gm2'
p2219
S'72157644110891944'
p2220
sS'Sp10-broomball'
p2221
S'72157644225830864'
p2222
sS'Sp07-donutrun'
p2223
S'72157644210734426'
p2224
sS'Sp08-aad'
p2225
S'72157644070604691'
p2226
sS'Fa11-FriendsofFiveCreeks'
p2227
S'72157644156903874'
p2228
sS'Sp10-beachBonfire'
p2229
S'72157644267541603'
p2230
sS'Fa05-gm1'
p2231
S'72157643897093963'
p2232
sS'Sp05-gm3'
p2233
S'72157644221773021'
p2234
sS'Fa03-scavhuntisaac'
p2235
S'72157644130517562'
p2236
sS'Sp03-dateauction'
p2237
S'72157644227724551'
p2238
sS'Sp05-amazon'
p2239
S'72157644235876545'
p2240
sS'Fa00-oracleinfosession'
p2241
S'72157644179241071'
p2242
sS'Fa11-LawrenceHallofScienceDinosvsRobots'
p2243
S'72157644106411361'
p2244
sS'Fa12-ESportsNight'
p2245
S'72157644247775772'
p2246
sS'Sp14-0405-EngineeringSportsNight'
p2247
S'72157643926832974'
p2248
sS'Sp07-iceskating'
p2249
S'72157644265009234'
p2250
sS'Sp03-nchenbday'
p2251
S'72157644226073331'
p2252
sS'Fa12-1021-PhotoScav'
p2253
S'72157644304033813'
p2254
sS'Fa03-bowling'
p2255
S'72157644184738203'
p2256
sS'Sp06-dinner'
p2257
S'72157644151634623'
p2258
sS'Fa07-bigc'
p2259
S'72157644197565116'
p2260
sS'Sp06-sushi'
p2261
S'72157644098275401'
p2262
sS'Sp04-bball1'
p2263
S'72157644056569213'
p2264
sS'Sp08-serenade'
p2265
S'72157644121963933'
p2266
sS'Sp02-cand'
p2267
S'72157644000226344'
p2268
sS'Sp13-RockClimbing'
p2269
S'72157644102385544'
p2270
sS'Fa08-ZooCleanup'
p2271
S'72157644323578302'
p2272
sS'Fa02-donutrun'
p2273
S'72157644004224364'
p2274
sS'Sp05-peer'
p2275
S'72157644275672143'
p2276
sS'Sp09-AlumniBroomball'
p2277
S'72157644345008575'
p2278
sS'Fa07-aad'
p2279
S'72157644252470914'
p2280
sS'Sp02-karaoke'
p2281
S'72157644001103354'
p2282
sS'Fa09-Banquet'
p2283
S'72157644374569773'
p2284
sS'Sp02-dhsubday'
p2285
S'72157644000297525'
p2286
sS'Sp02-alumnibroomball'
p2287
S'72157644002205855'
p2288
sS'Fa05-pshTeamYourMom'
p2289
S'72157643895711365'
p2290
sS'Sp03-scavhuntdhsu'
p2291
S'72157644185751356'
p2292
sS'Sp13-RamenandMovieNight'
p2293
S'72157644053230341'
p2294
sS'Sp08-donutrun'
p2295
S'72157644069817262'
p2296
sS'Sp14-0307-CandidateIceCream'
p2297
S'72157643929993934'
p2298
sS'Sp03-karaoke'
p2299
S'72157644280725373'
p2300
sS'Fa05-ice'
p2301
S'72157643896279973'
p2302
sS'Fa00-foodbank2'
p2303
S'72157644232505013'
p2304
sS'Sp03-ctf'
p2305
S'72157644280640633'
p2306
sS'Fa02-ieee'
p2307
S'72157644002768784'
p2308
sS'Fa00-patkaidinner'
p2309
S'72157644233395193'
p2310
sS'Fa05-lhs'
p2311
S'72157643948307855'
p2312
sS'Sp01-potluck001'
p2313
S'72157644222146695'
p2314
sS'Sp08-originals'
p2315
S'72157644126173324'
p2316
sS'Sp06-bake'
p2317
S'72157644101508081'
p2318
sS'Fa12-Bowling'
p2319
S'72157644259731805'
p2320
sS'Sp01-calday'
p2321
S'72157644210142682'
p2322
sS'Fa02-trailhacking'
p2323
S'72157644002786044'
p2324
sS'Fa01-minigolf'
p2325
S'72157644120858103'
p2326
sS'Sp06-zoo'
p2327
S'72157644099216886'
p2328
sS'Fa10-rockclimbing'
p2329
S'72157644276518614'
p2330
sS'Sp13-SuperbowlParty'
p2331
S'72157644107432715'
p2332
sS'Sp01-lorentzmisc'
p2333
S'72157644222856985'
p2334
s.