c__builtin__
set
p0
((lp1
S'http://i.imgur.com/VZ955MB.jpg'
p2
aVhttp://i.imgur.com/Ugd9wnN.jpg
p3
aVhttp://i.imgur.com/F1IV63W.jpg
p4
aVhttp://i.imgur.com/fR7zVym.jpg
p5
aVhttp://i.imgur.com/oGeu0xr.png
p6
aVhttps://i.imgur.com/pMAnAv9.jpg
p7
aVhttp://i.imgur.com/p6BrqnW.jpg
p8
aVhttp://i.imgur.com/W33yHBn.jpg
p9
aVhttp://i.imgur.com/tjRXMda.jpg
p10
atp11
Rp12
.